; Function Attrs: nounwind uwtable
define internal i32 @test_MSG_add_extraCerts() #0 {
  %1 = tail call fastcc ptr @set_up(ptr noundef nonnull @.str.54)
  %2 = icmp eq ptr %1, null
  br i1 %2, label %24, label %3

3:                                                ; preds = %0
  %4 = load ptr, ptr @ir_protected, align 8, !tbaa !9
  %5 = tail call ptr @OSSL_CMP_MSG_dup(ptr noundef %4) #5
  %6 = getelementptr i8, ptr %1, i64 16
  store ptr %5, ptr %6, align 8, !tbaa !19
  %7 = tail call i32 @test_ptr(ptr noundef nonnull @.str.14, i32 noundef 328, ptr noundef nonnull @.str.86, ptr noundef %5) #5
  %.not = icmp eq i32 %7, 0
  %8 = getelementptr i8, ptr %1, i64 8
  %9 = load ptr, ptr %8, align 8, !tbaa !36
  br i1 %.not, label %.sink.split, label %tear_down.exit13

tear_down.exit13:                                 ; preds = %3
  %.07.val11 = load ptr, ptr %6, align 8, !tbaa !19
  %10 = tail call i32 @ossl_cmp_msg_add_extraCerts(ptr noundef %9, ptr noundef %.07.val11) #5
  %11 = icmp ne i32 %10, 0
  %12 = zext i1 %11 to i32
  %13 = tail call i32 @test_true(ptr noundef nonnull @.str.14, i32 noundef 322, ptr noundef nonnull @.str.87, i32 noundef %12) #5
  %14 = load ptr, ptr %8, align 8, !tbaa !36
  br label %.sink.split

.sink.split:                                      ; preds = %3, %tear_down.exit13
  %.sink = phi ptr [ %14, %tear_down.exit13 ], [ %9, %3 ]
  %.08.ph = phi i32 [ %13, %tear_down.exit13 ], [ 0, %3 ]
  tail call void @OSSL_CMP_CTX_free(ptr noundef %.sink) #5
  %15 = load ptr, ptr %6, align 8, !tbaa !19
  tail call void @OSSL_CMP_MSG_free(ptr noundef %15) #5
  %16 = getelementptr inbounds nuw i8, ptr %1, i64 24
  %17 = load ptr, ptr %16, align 8, !tbaa !37
  tail call void @OSSL_CMP_PKISI_free(ptr noundef %17) #5
  %18 = getelementptr inbounds nuw i8, ptr %1, i64 40
  %19 = load ptr, ptr %18, align 8, !tbaa !38
  tail call void @CRYPTO_free(ptr noundef %19, ptr noundef nonnull @.str.14, i32 noundef 46) #5
  %20 = getelementptr inbounds nuw i8, ptr %1, i64 64
  %21 = load ptr, ptr %20, align 8, !tbaa !39
  tail call void @OPENSSL_sk_free(ptr noundef %21) #5
  %22 = getelementptr inbounds nuw i8, ptr %1, i64 72
  %23 = load ptr, ptr %22, align 8, !tbaa !40
  tail call void @OPENSSL_sk_free(ptr noundef %23) #5
  tail call void @CRYPTO_free(ptr noundef nonnull %1, ptr noundef nonnull @.str.14, i32 noundef 50) #5
  br label %24

24:                                               ; preds = %.sink.split, %0
  %.08 = phi i32 [ 0, %0 ], [ %.08.ph, %.sink.split ]
  ret i32 %.08
}